; Function Attrs: mustprogress nounwind uwtable
define noundef nonnull align 8 dereferenceable(12) ptr @_ZN4pkpy5BytesaSEOS0_(ptr noundef nonnull returned align 8 dereferenceable(12) %0, ptr nocapture noundef nonnull align 8 dereferenceable(12) %1) local_unnamed_addr #7 align 2 {
  %3 = load ptr, ptr %0, align 8
  %4 = icmp eq ptr %3, null
  br i1 %4, label %6, label %5

5:                                                ; preds = %2
  tail call void @_ZdaPv(ptr noundef nonnull %3) #14
  br label %6

6:                                                ; preds = %5, %2
  %7 = load ptr, ptr %1, align 8
  store ptr %7, ptr %0, align 8
  %8 = getelementptr inbounds i8, ptr %1, i64 8
  %9 = load i32, ptr %8, align 8
  %10 = getelementptr inbounds i8, ptr %0, i64 8
  store i32 %9, ptr %10, align 8
  store ptr null, ptr %1, align 8
  store i32 0, ptr %8, align 8
  ret ptr %0
}